target datalayout = "e-m:e-p270:32:32-p271:32:32-p272:64:64-i64:64-i128:128-f80:128-n8:16:32:64-S128"
target triple = "x86_64-pc-linux-gnu"

%struct.code = type { i8, i8, i16 }
%struct.z_stream_s = type { ptr, i32, i64, ptr, i32, i64, ptr, ptr, ptr, ptr, ptr, i32, i64, i64 }
%struct.inflate_state = type { i32, i32, i32, i32, i32, i32, i64, i64, ptr, i32, i32, i32, i32, ptr, i64, i32, i32, i32, i32, ptr, ptr, i32, i32, i32, i32, i32, i32, ptr, [320 x i16], [288 x i16], [1444 x %struct.code], i32, i32, i32 }

@.str = private unnamed_addr constant [6 x i8] c"1.2.8\00", align 1

; Function Attrs: nounwind uwtable
define i32 @inflateResetKeep(ptr noundef %0) #0 {
  %2 = alloca i32, align 4
  %3 = alloca ptr, align 8
  %4 = alloca ptr, align 8
  %5 = alloca i32, align 4
  store ptr %0, ptr %3, align 8, !tbaa !3
  call void @llvm.lifetime.start.p0(i64 8, ptr %4) #4
  %6 = load ptr, ptr %3, align 8, !tbaa !3
  %7 = icmp eq ptr %6, null
  br i1 %7, label %13, label %8

8:                                                ; preds = %1
  %9 = load ptr, ptr %3, align 8, !tbaa !3
  %10 = getelementptr inbounds nuw %struct.z_stream_s, ptr %9, i32 0, i32 7
  %11 = load ptr, ptr %10, align 8, !tbaa !8
  %12 = icmp eq ptr %11, null
  br i1 %12, label %13, label %14

13:                                               ; preds = %8, %1
  store i32 -2, ptr %2, align 4
  store i32 1, ptr %5, align 4
  br label %66

14:                                               ; preds = %8
  %15 = load ptr, ptr %3, align 8, !tbaa !3
  %16 = getelementptr inbounds nuw %struct.z_stream_s, ptr %15, i32 0, i32 7
  %17 = load ptr, ptr %16, align 8, !tbaa !8
  store ptr %17, ptr %4, align 8, !tbaa !14
  %18 = load ptr, ptr %4, align 8, !tbaa !14
  %19 = getelementptr inbounds nuw %struct.inflate_state, ptr %18, i32 0, i32 7
  store i64 0, ptr %19, align 8, !tbaa !16
  %20 = load ptr, ptr %3, align 8, !tbaa !3
  %21 = getelementptr inbounds nuw %struct.z_stream_s, ptr %20, i32 0, i32 5
  store i64 0, ptr %21, align 8, !tbaa !19
  %22 = load ptr, ptr %3, align 8, !tbaa !3
  %23 = getelementptr inbounds nuw %struct.z_stream_s, ptr %22, i32 0, i32 2
  store i64 0, ptr %23, align 8, !tbaa !20
  %24 = load ptr, ptr %3, align 8, !tbaa !3
  %25 = getelementptr inbounds nuw %struct.z_stream_s, ptr %24, i32 0, i32 6
  store ptr null, ptr %25, align 8, !tbaa !21
  %26 = load ptr, ptr %4, align 8, !tbaa !14
  %27 = getelementptr inbounds nuw %struct.inflate_state, ptr %26, i32 0, i32 2
  %28 = load i32, ptr %27, align 8, !tbaa !22
  %29 = icmp ne i32 %28, 0
  br i1 %29, label %30, label %38

30:                                               ; preds = %14
  %31 = load ptr, ptr %4, align 8, !tbaa !14
  %32 = getelementptr inbounds nuw %struct.inflate_state, ptr %31, i32 0, i32 2
  %33 = load i32, ptr %32, align 8, !tbaa !22
  %34 = and i32 %33, 1
  %35 = sext i32 %34 to i64
  %36 = load ptr, ptr %3, align 8, !tbaa !3
  %37 = getelementptr inbounds nuw %struct.z_stream_s, ptr %36, i32 0, i32 12
  store i64 %35, ptr %37, align 8, !tbaa !23
  br label %38

38:                                               ; preds = %30, %14
  %39 = load ptr, ptr %4, align 8, !tbaa !14
  %40 = getelementptr inbounds nuw %struct.inflate_state, ptr %39, i32 0, i32 0
  store i32 0, ptr %40, align 8, !tbaa !24
  %41 = load ptr, ptr %4, align 8, !tbaa !14
  %42 = getelementptr inbounds nuw %struct.inflate_state, ptr %41, i32 0, i32 1
  store i32 0, ptr %42, align 4, !tbaa !25
  %43 = load ptr, ptr %4, align 8, !tbaa !14
  %44 = getelementptr inbounds nuw %struct.inflate_state, ptr %43, i32 0, i32 3
  store i32 0, ptr %44, align 4, !tbaa !26
  %45 = load ptr, ptr %4, align 8, !tbaa !14
  %46 = getelementptr inbounds nuw %struct.inflate_state, ptr %45, i32 0, i32 5
  store i32 32768, ptr %46, align 4, !tbaa !27
  %47 = load ptr, ptr %4, align 8, !tbaa !14
  %48 = getelementptr inbounds nuw %struct.inflate_state, ptr %47, i32 0, i32 8
  store ptr null, ptr %48, align 8, !tbaa !28
  %49 = load ptr, ptr %4, align 8, !tbaa !14
  %50 = getelementptr inbounds nuw %struct.inflate_state, ptr %49, i32 0, i32 14
  store i64 0, ptr %50, align 8, !tbaa !29
  %51 = load ptr, ptr %4, align 8, !tbaa !14
  %52 = getelementptr inbounds nuw %struct.inflate_state, ptr %51, i32 0, i32 15
  store i32 0, ptr %52, align 8, !tbaa !30
  %53 = load ptr, ptr %4, align 8, !tbaa !14
  %54 = getelementptr inbounds nuw %struct.inflate_state, ptr %53, i32 0, i32 30
  %55 = getelementptr inbounds [1444 x %struct.code], ptr %54, i64 0, i64 0
  %56 = load ptr, ptr %4, align 8, !tbaa !14
  %57 = getelementptr inbounds nuw %struct.inflate_state, ptr %56, i32 0, i32 27
  store ptr %55, ptr %57, align 8, !tbaa !31
  %58 = load ptr, ptr %4, align 8, !tbaa !14
  %59 = getelementptr inbounds nuw %struct.inflate_state, ptr %58, i32 0, i32 20
  store ptr %55, ptr %59, align 8, !tbaa !32
  %60 = load ptr, ptr %4, align 8, !tbaa !14
  %61 = getelementptr inbounds nuw %struct.inflate_state, ptr %60, i32 0, i32 19
  store ptr %55, ptr %61, align 8, !tbaa !33
  %62 = load ptr, ptr %4, align 8, !tbaa !14
  %63 = getelementptr inbounds nuw %struct.inflate_state, ptr %62, i32 0, i32 31
  store i32 1, ptr %63, align 8, !tbaa !34
  %64 = load ptr, ptr %4, align 8, !tbaa !14
  %65 = getelementptr inbounds nuw %struct.inflate_state, ptr %64, i32 0, i32 32
  store i32 -1, ptr %65, align 4, !tbaa !35
  store i32 0, ptr %2, align 4
  store i32 1, ptr %5, align 4
  br label %66

66:                                               ; preds = %38, %13
  call void @llvm.lifetime.end.p0(i64 8, ptr %4) #4
  %67 = load i32, ptr %2, align 4
  ret i32 %67
}

; Function Attrs: nounwind uwtable
define i32 @inflateReset(ptr noundef %0) #0 {
  %2 = alloca i32, align 4
  %3 = alloca ptr, align 8
  %4 = alloca ptr, align 8
  %5 = alloca i32, align 4
  store ptr %0, ptr %3, align 8, !tbaa !3
  call void @llvm.lifetime.start.p0(i64 8, ptr %4) #4
  %6 = load ptr, ptr %3, align 8, !tbaa !3
  %7 = icmp eq ptr %6, null
  br i1 %7, label %13, label %8

8:                                                ; preds = %1
  %9 = load ptr, ptr %3, align 8, !tbaa !3
  %10 = getelementptr inbounds nuw %struct.z_stream_s, ptr %9, i32 0, i32 7
  %11 = load ptr, ptr %10, align 8, !tbaa !8
  %12 = icmp eq ptr %11, null
  br i1 %12, label %13, label %14

13:                                               ; preds = %8, %1
  store i32 -2, ptr %2, align 4
  store i32 1, ptr %5, align 4
  br label %26

14:                                               ; preds = %8
  %15 = load ptr, ptr %3, align 8, !tbaa !3
  %16 = getelementptr inbounds nuw %struct.z_stream_s, ptr %15, i32 0, i32 7
  %17 = load ptr, ptr %16, align 8, !tbaa !8
  store ptr %17, ptr %4, align 8, !tbaa !14
  %18 = load ptr, ptr %4, align 8, !tbaa !14
  %19 = getelementptr inbounds nuw %struct.inflate_state, ptr %18, i32 0, i32 10
  store i32 0, ptr %19, align 4, !tbaa !36
  %20 = load ptr, ptr %4, align 8, !tbaa !14
  %21 = getelementptr inbounds nuw %struct.inflate_state, ptr %20, i32 0, i32 11
  store i32 0, ptr %21, align 8, !tbaa !37
  %22 = load ptr, ptr %4, align 8, !tbaa !14
  %23 = getelementptr inbounds nuw %struct.inflate_state, ptr %22, i32 0, i32 12
  store i32 0, ptr %23, align 4, !tbaa !38
  %24 = load ptr, ptr %3, align 8, !tbaa !3
  %25 = call i32 @inflateResetKeep(ptr noundef %24)
  store i32 %25, ptr %2, align 4
  store i32 1, ptr %5, align 4
  br label %26

26:                                               ; preds = %14, %13
  call void @llvm.lifetime.end.p0(i64 8, ptr %4) #4
  %27 = load i32, ptr %2, align 4
  ret i32 %27
}

; Function Attrs: nounwind uwtable
define i32 @inflateReset2(ptr noundef %0, i32 noundef %1) #0 {
  %3 = alloca i32, align 4
  %4 = alloca ptr, align 8
  %5 = alloca i32, align 4
  %6 = alloca i32, align 4
  %7 = alloca ptr, align 8
  %8 = alloca i32, align 4
  store ptr %0, ptr %4, align 8, !tbaa !3
  store i32 %1, ptr %5, align 4, !tbaa !39
  call void @llvm.lifetime.start.p0(i64 4, ptr %6) #4
  call void @llvm.lifetime.start.p0(i64 8, ptr %7) #4
  %9 = load ptr, ptr %4, align 8, !tbaa !3
  %10 = icmp eq ptr %9, null
  br i1 %10, label %16, label %11

11:                                               ; preds = %2
  %12 = load ptr, ptr %4, align 8, !tbaa !3
  %13 = getelementptr inbounds nuw %struct.z_stream_s, ptr %12, i32 0, i32 7
  %14 = load ptr, ptr %13, align 8, !tbaa !8
  %15 = icmp eq ptr %14, null
  br i1 %15, label %16, label %17

16:                                               ; preds = %11, %2
  store i32 -2, ptr %3, align 4
  store i32 1, ptr %8, align 4
  br label %78

17:                                               ; preds = %11
  %18 = load ptr, ptr %4, align 8, !tbaa !3
  %19 = getelementptr inbounds nuw %struct.z_stream_s, ptr %18, i32 0, i32 7
  %20 = load ptr, ptr %19, align 8, !tbaa !8
  store ptr %20, ptr %7, align 8, !tbaa !14
  %21 = load i32, ptr %5, align 4, !tbaa !39
  %22 = icmp slt i32 %21, 0
  br i1 %22, label %23, label %26

23:                                               ; preds = %17
  store i32 0, ptr %6, align 4, !tbaa !39
  %24 = load i32, ptr %5, align 4, !tbaa !39
  %25 = sub nsw i32 0, %24
  store i32 %25, ptr %5, align 4, !tbaa !39
  br label %36

26:                                               ; preds = %17
  %27 = load i32, ptr %5, align 4, !tbaa !39
  %28 = ashr i32 %27, 4
  %29 = add nsw i32 %28, 1
  store i32 %29, ptr %6, align 4, !tbaa !39
  %30 = load i32, ptr %5, align 4, !tbaa !39
  %31 = icmp slt i32 %30, 48
  br i1 %31, label %32, label %35

32:                                               ; preds = %26
  %33 = load i32, ptr %5, align 4, !tbaa !39
  %34 = and i32 %33, 15
  store i32 %34, ptr %5, align 4, !tbaa !39
  br label %35

35:                                               ; preds = %32, %26
  br label %36

36:                                               ; preds = %35, %23
  %37 = load i32, ptr %5, align 4, !tbaa !39
  %38 = icmp ne i32 %37, 0
  br i1 %38, label %39, label %46

39:                                               ; preds = %36
  %40 = load i32, ptr %5, align 4, !tbaa !39
  %41 = icmp slt i32 %40, 8
  br i1 %41, label %45, label %42

42:                                               ; preds = %39
  %43 = load i32, ptr %5, align 4, !tbaa !39
  %44 = icmp sgt i32 %43, 15
  br i1 %44, label %45, label %46

45:                                               ; preds = %42, %39
  store i32 -2, ptr %3, align 4
  store i32 1, ptr %8, align 4
  br label %78

46:                                               ; preds = %42, %36
  %47 = load ptr, ptr %7, align 8, !tbaa !14
  %48 = getelementptr inbounds nuw %struct.inflate_state, ptr %47, i32 0, i32 13
  %49 = load ptr, ptr %48, align 8, !tbaa !40
  %50 = icmp ne ptr %49, null
  br i1 %50, label %51, label %69

51:                                               ; preds = %46
  %52 = load ptr, ptr %7, align 8, !tbaa !14
  %53 = getelementptr inbounds nuw %struct.inflate_state, ptr %52, i32 0, i32 9
  %54 = load i32, ptr %53, align 8, !tbaa !41
  %55 = load i32, ptr %5, align 4, !tbaa !39
  %56 = icmp ne i32 %54, %55
  br i1 %56, label %57, label %69

57:                                               ; preds = %51
  %58 = load ptr, ptr %4, align 8, !tbaa !3
  %59 = getelementptr inbounds nuw %struct.z_stream_s, ptr %58, i32 0, i32 9
  %60 = load ptr, ptr %59, align 8, !tbaa !42
  %61 = load ptr, ptr %4, align 8, !tbaa !3
  %62 = getelementptr inbounds nuw %struct.z_stream_s, ptr %61, i32 0, i32 10
  %63 = load ptr, ptr %62, align 8, !tbaa !43
  %64 = load ptr, ptr %7, align 8, !tbaa !14
  %65 = getelementptr inbounds nuw %struct.inflate_state, ptr %64, i32 0, i32 13
  %66 = load ptr, ptr %65, align 8, !tbaa !40
  call void %60(ptr noundef %63, ptr noundef %66)
  %67 = load ptr, ptr %7, align 8, !tbaa !14
  %68 = getelementptr inbounds nuw %struct.inflate_state, ptr %67, i32 0, i32 13
  store ptr null, ptr %68, align 8, !tbaa !40
  br label %69

69:                                               ; preds = %57, %51, %46
  %70 = load i32, ptr %6, align 4, !tbaa !39
  %71 = load ptr, ptr %7, align 8, !tbaa !14
  %72 = getelementptr inbounds nuw %struct.inflate_state, ptr %71, i32 0, i32 2
  store i32 %70, ptr %72, align 8, !tbaa !22
  %73 = load i32, ptr %5, align 4, !tbaa !39
  %74 = load ptr, ptr %7, align 8, !tbaa !14
  %75 = getelementptr inbounds nuw %struct.inflate_state, ptr %74, i32 0, i32 9
  store i32 %73, ptr %75, align 8, !tbaa !41
  %76 = load ptr, ptr %4, align 8, !tbaa !3
  %77 = call i32 @inflateReset(ptr noundef %76)
  store i32 %77, ptr %3, align 4
  store i32 1, ptr %8, align 4
  br label %78

78:                                               ; preds = %69, %45, %16
  call void @llvm.lifetime.end.p0(i64 8, ptr %7) #4
  call void @llvm.lifetime.end.p0(i64 4, ptr %6) #4
  %79 = load i32, ptr %3, align 4
  ret i32 %79
}

; Function Attrs: nounwind uwtable
define i32 @inflateInit2_(ptr noundef %0, i32 noundef %1, ptr noundef %2, i32 noundef %3) #0 {
  %5 = alloca i32, align 4
  %6 = alloca ptr, align 8
  %7 = alloca i32, align 4
  %8 = alloca ptr, align 8
  %9 = alloca i32, align 4
  %10 = alloca i32, align 4
  %11 = alloca ptr, align 8
  %12 = alloca i32, align 4
  store ptr %0, ptr %6, align 8, !tbaa !3
  store i32 %1, ptr %7, align 4, !tbaa !39
  store ptr %2, ptr %8, align 8, !tbaa !44
  store i32 %3, ptr %9, align 4, !tbaa !39
  call void @llvm.lifetime.start.p0(i64 4, ptr %10) #4
  call void @llvm.lifetime.start.p0(i64 8, ptr %11) #4
  %13 = load ptr, ptr %8, align 8, !tbaa !44
  %14 = icmp eq ptr %13, null
  br i1 %14, label %26, label %15

15:                                               ; preds = %4
  %16 = load ptr, ptr %8, align 8, !tbaa !44
  %17 = getelementptr inbounds i8, ptr %16, i64 0
  %18 = load i8, ptr %17, align 1, !tbaa !45
  %19 = sext i8 %18 to i32
  %20 = load i8, ptr @.str, align 1, !tbaa !45
  %21 = sext i8 %20 to i32
  %22 = icmp ne i32 %19, %21
  br i1 %22, label %26, label %23

23:                                               ; preds = %15
  %24 = load i32, ptr %9, align 4, !tbaa !39
  %25 = icmp ne i32 %24, 112
  br i1 %25, label %26, label %27

26:                                               ; preds = %23, %15, %4
  store i32 -6, ptr %5, align 4
  store i32 1, ptr %12, align 4
  br label %85

27:                                               ; preds = %23
  %28 = load ptr, ptr %6, align 8, !tbaa !3
  %29 = icmp eq ptr %28, null
  br i1 %29, label %30, label %31

30:                                               ; preds = %27
  store i32 -2, ptr %5, align 4
  store i32 1, ptr %12, align 4
  br label %85

31:                                               ; preds = %27
  %32 = load ptr, ptr %6, align 8, !tbaa !3
  %33 = getelementptr inbounds nuw %struct.z_stream_s, ptr %32, i32 0, i32 6
  store ptr null, ptr %33, align 8, !tbaa !21
  %34 = load ptr, ptr %6, align 8, !tbaa !3
  %35 = getelementptr inbounds nuw %struct.z_stream_s, ptr %34, i32 0, i32 8
  %36 = load ptr, ptr %35, align 8, !tbaa !46
  %37 = icmp eq ptr %36, null
  br i1 %37, label %38, label %43

38:                                               ; preds = %31
  %39 = load ptr, ptr %6, align 8, !tbaa !3
  %40 = getelementptr inbounds nuw %struct.z_stream_s, ptr %39, i32 0, i32 8
  store ptr @zcalloc, ptr %40, align 8, !tbaa !46
  %41 = load ptr, ptr %6, align 8, !tbaa !3
  %42 = getelementptr inbounds nuw %struct.z_stream_s, ptr %41, i32 0, i32 10
  store ptr null, ptr %42, align 8, !tbaa !43
  br label %43

43:                                               ; preds = %38, %31
  %44 = load ptr, ptr %6, align 8, !tbaa !3
  %45 = getelementptr inbounds nuw %struct.z_stream_s, ptr %44, i32 0, i32 9
  %46 = load ptr, ptr %45, align 8, !tbaa !42
  %47 = icmp eq ptr %46, null
  br i1 %47, label %48, label %51

48:                                               ; preds = %43
  %49 = load ptr, ptr %6, align 8, !tbaa !3
  %50 = getelementptr inbounds nuw %struct.z_stream_s, ptr %49, i32 0, i32 9
  store ptr @zcfree, ptr %50, align 8, !tbaa !42
  br label %51

51:                                               ; preds = %48, %43
  %52 = load ptr, ptr %6, align 8, !tbaa !3
  %53 = getelementptr inbounds nuw %struct.z_stream_s, ptr %52, i32 0, i32 8
  %54 = load ptr, ptr %53, align 8, !tbaa !46
  %55 = load ptr, ptr %6, align 8, !tbaa !3
  %56 = getelementptr inbounds nuw %struct.z_stream_s, ptr %55, i32 0, i32 10
  %57 = load ptr, ptr %56, align 8, !tbaa !43
  %58 = call ptr %54(ptr noundef %57, i32 noundef 1, i32 noundef 7152)
  store ptr %58, ptr %11, align 8, !tbaa !14
  %59 = load ptr, ptr %11, align 8, !tbaa !14
  %60 = icmp eq ptr %59, null
  br i1 %60, label %61, label %62

61:                                               ; preds = %51
  store i32 -4, ptr %5, align 4
  store i32 1, ptr %12, align 4
  br label %85

62:                                               ; preds = %51
  %63 = load ptr, ptr %11, align 8, !tbaa !14
  %64 = load ptr, ptr %6, align 8, !tbaa !3
  %65 = getelementptr inbounds nuw %struct.z_stream_s, ptr %64, i32 0, i32 7
  store ptr %63, ptr %65, align 8, !tbaa !8
  %66 = load ptr, ptr %11, align 8, !tbaa !14
  %67 = getelementptr inbounds nuw %struct.inflate_state, ptr %66, i32 0, i32 13
  store ptr null, ptr %67, align 8, !tbaa !40
  %68 = load ptr, ptr %6, align 8, !tbaa !3
  %69 = load i32, ptr %7, align 4, !tbaa !39
  %70 = call i32 @inflateReset2(ptr noundef %68, i32 noundef %69)
  store i32 %70, ptr %10, align 4, !tbaa !39
  %71 = load i32, ptr %10, align 4, !tbaa !39
  %72 = icmp ne i32 %71, 0
  br i1 %72, label %73, label %83

73:                                               ; preds = %62
  %74 = load ptr, ptr %6, align 8, !tbaa !3
  %75 = getelementptr inbounds nuw %struct.z_stream_s, ptr %74, i32 0, i32 9
  %76 = load ptr, ptr %75, align 8, !tbaa !42
  %77 = load ptr, ptr %6, align 8, !tbaa !3
  %78 = getelementptr inbounds nuw %struct.z_stream_s, ptr %77, i32 0, i32 10
  %79 = load ptr, ptr %78, align 8, !tbaa !43
  %80 = load ptr, ptr %11, align 8, !tbaa !14
  call void %76(ptr noundef %79, ptr noundef %80)
  %81 = load ptr, ptr %6, align 8, !tbaa !3
  %82 = getelementptr inbounds nuw %struct.z_stream_s, ptr %81, i32 0, i32 7
  store ptr null, ptr %82, align 8, !tbaa !8
  br label %83

83:                                               ; preds = %73, %62
  %84 = load i32, ptr %10, align 4, !tbaa !39
  store i32 %84, ptr %5, align 4
  store i32 1, ptr %12, align 4
  br label %85

85:                                               ; preds = %83, %61, %30, %26
  call void @llvm.lifetime.end.p0(i64 8, ptr %11) #4
  call void @llvm.lifetime.end.p0(i64 4, ptr %10) #4
  %86 = load i32, ptr %5, align 4
  ret i32 %86
}