; Function Attrs: nounwind uwtable
define range(i32 -6, 1) i32 @inflateInit2_(ptr noundef %0, i32 noundef %1, ptr noundef readonly %2, i32 noundef %3) local_unnamed_addr #2 {
  %5 = icmp eq ptr %2, null
  br i1 %5, label %69, label %6

6:                                                ; preds = %4
  %7 = load i8, ptr %2, align 1, !tbaa !37
  %8 = icmp ne i8 %7, 49
  %9 = icmp ne i32 %3, 112
  %or.cond = or i1 %9, %8
  br i1 %or.cond, label %69, label %10

10:                                               ; preds = %6
  %11 = icmp eq ptr %0, null
  br i1 %11, label %69, label %12

12:                                               ; preds = %10
  %13 = getelementptr inbounds nuw i8, ptr %0, i64 48
  store ptr null, ptr %13, align 8, !tbaa !38
  %14 = getelementptr inbounds nuw i8, ptr %0, i64 64
  %15 = load ptr, ptr %14, align 8, !tbaa !39
  %16 = icmp eq ptr %15, null
  br i1 %16, label %17, label %19

17:                                               ; preds = %12
  store ptr @zcalloc, ptr %14, align 8, !tbaa !39
  %18 = getelementptr inbounds nuw i8, ptr %0, i64 80
  store ptr null, ptr %18, align 8, !tbaa !36
  br label %19

19:                                               ; preds = %17, %12
  %20 = phi ptr [ @zcalloc, %17 ], [ %15, %12 ]
  %21 = getelementptr inbounds nuw i8, ptr %0, i64 72
  %22 = load ptr, ptr %21, align 8, !tbaa !35
  %23 = icmp eq ptr %22, null
  br i1 %23, label %24, label %25

24:                                               ; preds = %19
  store ptr @zcfree, ptr %21, align 8, !tbaa !35
  br label %25

25:                                               ; preds = %24, %19
  %26 = getelementptr inbounds nuw i8, ptr %0, i64 80
  %27 = load ptr, ptr %26, align 8, !tbaa !36
  %28 = tail call ptr %20(ptr noundef %27, i32 noundef 1, i32 noundef 7152) #10
  %29 = icmp eq ptr %28, null
  br i1 %29, label %69, label %30

30:                                               ; preds = %25
  %31 = getelementptr inbounds nuw i8, ptr %0, i64 56
  store ptr %28, ptr %31, align 8, !tbaa !3
  %32 = getelementptr inbounds nuw i8, ptr %28, i64 64
  store ptr null, ptr %32, align 8, !tbaa !33
  %33 = icmp slt i32 %1, 0
  br i1 %33, label %34, label %36

34:                                               ; preds = %30
  %35 = sub nsw i32 0, %1
  br label %select.unfold.i

36:                                               ; preds = %30
  %37 = lshr i32 %1, 4
  %38 = add nuw nsw i32 %37, 1
  %39 = icmp samesign ult i32 %1, 48
  %40 = and i32 %1, 15
  %spec.select = select i1 %39, i32 %40, i32 %1
  br label %select.unfold.i

select.unfold.i:                                  ; preds = %36, %34
  %.025.i = phi i32 [ %35, %34 ], [ %spec.select, %36 ]
  %.024.i = phi i32 [ 0, %34 ], [ %38, %36 ]
  switch i32 %.025.i, label %inflateReset2.exit [
    i32 15, label %41
    i32 14, label %41
    i32 13, label %41
    i32 12, label %41
    i32 11, label %41
    i32 10, label %41
    i32 9, label %41
    i32 8, label %41
    i32 0, label %41
  ]

41:                                               ; preds = %select.unfold.i, %select.unfold.i, %select.unfold.i, %select.unfold.i, %select.unfold.i, %select.unfold.i, %select.unfold.i, %select.unfold.i, %select.unfold.i
  %42 = getelementptr inbounds nuw i8, ptr %28, i64 8
  store i32 %.024.i, ptr %42, align 8, !tbaa !16
  %43 = getelementptr inbounds nuw i8, ptr %28, i64 48
  store i32 %.025.i, ptr %43, align 8, !tbaa !34
  %44 = getelementptr inbounds nuw i8, ptr %28, i64 52
  store i32 0, ptr %44, align 4, !tbaa !30
  %45 = getelementptr inbounds nuw i8, ptr %28, i64 56
  store i32 0, ptr %45, align 8, !tbaa !31
  %46 = getelementptr inbounds nuw i8, ptr %28, i64 60
  store i32 0, ptr %46, align 4, !tbaa !32
  %47 = getelementptr inbounds nuw i8, ptr %28, i64 32
  store i64 0, ptr %47, align 8, !tbaa !12
  %48 = getelementptr inbounds nuw i8, ptr %0, i64 40
  %49 = getelementptr inbounds nuw i8, ptr %0, i64 16
  store i64 0, ptr %49, align 8, !tbaa !15
  tail call void @llvm.memset.p0.i64(ptr noundef nonnull align 8 dereferenceable(16) %48, i8 0, i64 16, i1 false)
  %50 = load i32, ptr %42, align 8, !tbaa !16
  %.not.i.i.i = icmp eq i32 %50, 0
  br i1 %.not.i.i.i, label %inflateReset2.exit.thread, label %51

51:                                               ; preds = %41
  %52 = and i32 %50, 1
  %53 = zext nneg i32 %52 to i64
  %54 = getelementptr inbounds nuw i8, ptr %0, i64 96
  store i64 %53, ptr %54, align 8, !tbaa !17
  br label %inflateReset2.exit.thread

inflateReset2.exit.thread:                        ; preds = %41, %51
  store i32 0, ptr %28, align 8, !tbaa !18
  %55 = getelementptr inbounds nuw i8, ptr %28, i64 4
  store i32 0, ptr %55, align 4, !tbaa !19
  %56 = getelementptr inbounds nuw i8, ptr %28, i64 12
  store i32 0, ptr %56, align 4, !tbaa !20
  %57 = getelementptr inbounds nuw i8, ptr %28, i64 20
  store i32 32768, ptr %57, align 4, !tbaa !21
  %58 = getelementptr inbounds nuw i8, ptr %28, i64 40
  store ptr null, ptr %58, align 8, !tbaa !22
  %59 = getelementptr inbounds nuw i8, ptr %28, i64 72
  store i64 0, ptr %59, align 8, !tbaa !23
  %60 = getelementptr inbounds nuw i8, ptr %28, i64 80
  store i32 0, ptr %60, align 8, !tbaa !24
  %61 = getelementptr inbounds nuw i8, ptr %28, i64 1360
  %62 = getelementptr inbounds nuw i8, ptr %28, i64 136
  store ptr %61, ptr %62, align 8, !tbaa !25
  %63 = getelementptr inbounds nuw i8, ptr %28, i64 104
  store ptr %61, ptr %63, align 8, !tbaa !26
  %64 = getelementptr inbounds nuw i8, ptr %28, i64 96
  store ptr %61, ptr %64, align 8, !tbaa !27
  %65 = getelementptr inbounds nuw i8, ptr %28, i64 7136
  store i32 1, ptr %65, align 8, !tbaa !28
  %66 = getelementptr inbounds nuw i8, ptr %28, i64 7140
  store i32 -1, ptr %66, align 4, !tbaa !29
  br label %69

inflateReset2.exit:                               ; preds = %select.unfold.i
  %67 = load ptr, ptr %21, align 8, !tbaa !35
  %68 = load ptr, ptr %26, align 8, !tbaa !36
  tail call void %67(ptr noundef %68, ptr noundef nonnull %28) #10
  store ptr null, ptr %31, align 8, !tbaa !3
  br label %69

69:                                               ; preds = %inflateReset2.exit.thread, %inflateReset2.exit, %25, %10, %4, %6
  %.0 = phi i32 [ -6, %6 ], [ -6, %4 ], [ -2, %10 ], [ -4, %25 ], [ -2, %inflateReset2.exit ], [ 0, %inflateReset2.exit.thread ]
  ret i32 %.0
}